; Function Attrs: nounwind uwtable
define void @b2Body_SetAngularVelocity(i64 %0, float noundef %1) local_unnamed_addr #0 {
  %.sroa.2.0.extract.shift = lshr i64 %0, 32
  %3 = trunc nuw i64 %.sroa.2.0.extract.shift to i32
  %4 = and i32 %3, 65535
  %5 = tail call ptr @b2GetWorld(i32 noundef %4) #10
  %6 = getelementptr inbounds nuw i8, ptr %5, i64 1032
  %.val.i = load ptr, ptr %6, align 8, !tbaa !10
  %7 = shl i64 %0, 32
  %sext.i = add i64 %7, -4294967296
  %8 = ashr exact i64 %sext.i, 25
  %9 = getelementptr inbounds i8, ptr %.val.i, i64 %8
  %10 = getelementptr inbounds nuw i8, ptr %9, i64 112
  %11 = load i32, ptr %10, align 8, !tbaa !145
  %12 = icmp eq i32 %11, 0
  br i1 %12, label %b2GetBodyState.exit.thread, label %13

13:                                               ; preds = %2
  %14 = getelementptr inbounds nuw i8, ptr %9, i64 119
  %15 = load i8, ptr %14, align 1, !tbaa !148, !range !75, !noundef !76
  %16 = trunc nuw i8 %15 to i1
  br i1 %16, label %b2GetBodyState.exit.thread, label %17

17:                                               ; preds = %13
  %18 = fcmp une float %1, 0.000000e+00
  br i1 %18, label %19, label %b2WakeBody.exit

19:                                               ; preds = %17
  %20 = getelementptr inbounds nuw i8, ptr %9, i64 40
  %21 = load i32, ptr %20, align 8, !tbaa !19
  %22 = icmp sgt i32 %21, 2
  br i1 %22, label %23, label %b2WakeBody.exit

23:                                               ; preds = %19
  tail call void @b2WakeSolverSet(ptr noundef nonnull %5, i32 noundef %21) #10
  br label %b2WakeBody.exit

b2WakeBody.exit:                                  ; preds = %23, %19, %17
  %24 = getelementptr inbounds nuw i8, ptr %9, i64 40
  %25 = load i32, ptr %24, align 8, !tbaa !19
  %26 = icmp eq i32 %25, 2
  br i1 %26, label %b2GetBodyState.exit, label %b2GetBodyState.exit.thread

b2GetBodyState.exit:                              ; preds = %b2WakeBody.exit
  %27 = getelementptr inbounds nuw i8, ptr %5, i64 1072
  %.val.i11 = load ptr, ptr %27, align 8, !tbaa !24
  %28 = getelementptr inbounds nuw i8, ptr %.val.i11, i64 192
  %.val5.i = load ptr, ptr %28, align 8, !tbaa !18
  %29 = icmp eq ptr %.val5.i, null
  br i1 %29, label %b2GetBodyState.exit.thread, label %30

30:                                               ; preds = %b2GetBodyState.exit
  %31 = getelementptr inbounds nuw i8, ptr %9, i64 44
  %32 = load i32, ptr %31, align 4, !tbaa !27
  %33 = sext i32 %32 to i64
  %34 = getelementptr inbounds %struct.b2BodyState, ptr %.val5.i, i64 %33, i32 1
  store float %1, ptr %34, align 4, !tbaa !117
  br label %b2GetBodyState.exit.thread

b2GetBodyState.exit.thread:                       ; preds = %b2WakeBody.exit, %30, %b2GetBodyState.exit, %2, %13
  ret void
}